; Function Attrs: nounwind uwtable
define dso_local void @ExecForceStoreMinimalTuple(ptr noundef %0, ptr noundef %1, i1 noundef zeroext %2) local_unnamed_addr #1 {
  %4 = alloca %struct.HeapTupleData, align 8
  %5 = getelementptr inbounds nuw i8, ptr %1, i64 8
  %6 = load ptr, ptr %5, align 8
  %7 = icmp eq ptr %6, @TTSOpsMinimalTuple
  br i1 %7, label %8, label %32

8:                                                ; preds = %3
  %9 = getelementptr inbounds nuw i8, ptr %1, i64 4
  %10 = load i16, ptr %9, align 4
  %11 = and i16 %10, 4
  %.not.i.i = icmp eq i16 %11, 0
  br i1 %.not.i.i, label %tts_minimal_clear.exit.i, label %12

12:                                               ; preds = %8
  %13 = getelementptr inbounds nuw i8, ptr %1, i64 72
  %14 = load ptr, ptr %13, align 8
  tail call void @heap_free_minimal_tuple(ptr noundef %14) #14
  %15 = load i16, ptr %9, align 4
  %16 = and i16 %15, -5
  br label %tts_minimal_clear.exit.i

tts_minimal_clear.exit.i:                         ; preds = %12, %8
  %17 = phi i16 [ %16, %12 ], [ %10, %8 ]
  %18 = getelementptr inbounds nuw i8, ptr %1, i64 6
  %19 = getelementptr inbounds nuw i8, ptr %1, i64 48
  store i16 -1, ptr %19, align 2
  %20 = getelementptr inbounds nuw i8, ptr %1, i64 50
  store i16 -1, ptr %20, align 2
  %21 = getelementptr inbounds nuw i8, ptr %1, i64 52
  store i16 0, ptr %21, align 2
  %22 = getelementptr inbounds nuw i8, ptr %1, i64 104
  %23 = getelementptr inbounds nuw i8, ptr %1, i64 72
  %24 = and i16 %17, -3
  store i16 %24, ptr %9, align 4
  store i16 0, ptr %18, align 2
  store i32 0, ptr %22, align 8
  store ptr %0, ptr %23, align 8
  %25 = load i32, ptr %0, align 4
  %26 = add i32 %25, 8
  %27 = getelementptr inbounds nuw i8, ptr %1, i64 80
  store i32 %26, ptr %27, align 8
  %28 = getelementptr inbounds i8, ptr %0, i64 -8
  %29 = getelementptr inbounds nuw i8, ptr %1, i64 96
  store ptr %28, ptr %29, align 8
  br i1 %2, label %30, label %tts_minimal_store_tuple.exit

30:                                               ; preds = %tts_minimal_clear.exit.i
  %31 = or i16 %24, 4
  store i16 %31, ptr %9, align 4
  br label %tts_minimal_store_tuple.exit

32:                                               ; preds = %3
  call void @llvm.lifetime.start.p0(i64 24, ptr nonnull %4) #14
  %33 = getelementptr inbounds nuw i8, ptr %6, i64 24
  %34 = load ptr, ptr %33, align 8
  tail call void %34(ptr noundef nonnull %1) #14
  %35 = load i32, ptr %0, align 4
  %36 = add i32 %35, 8
  store i32 %36, ptr %4, align 8
  %37 = getelementptr inbounds i8, ptr %0, i64 -8
  %38 = getelementptr inbounds nuw i8, ptr %4, i64 16
  store ptr %37, ptr %38, align 8
  %39 = getelementptr inbounds nuw i8, ptr %1, i64 16
  %40 = load ptr, ptr %39, align 8
  %41 = getelementptr inbounds nuw i8, ptr %1, i64 24
  %42 = load ptr, ptr %41, align 8
  %43 = getelementptr inbounds nuw i8, ptr %1, i64 32
  %44 = load ptr, ptr %43, align 8
  call void @heap_deform_tuple(ptr noundef nonnull %4, ptr noundef %40, ptr noundef %42, ptr noundef %44) #14
  %45 = getelementptr inbounds nuw i8, ptr %1, i64 4
  %46 = load i16, ptr %45, align 4
  %47 = and i16 %46, -3
  store i16 %47, ptr %45, align 4
  %48 = load ptr, ptr %39, align 8
  %49 = load i32, ptr %48, align 8
  %50 = trunc i32 %49 to i16
  %51 = getelementptr inbounds nuw i8, ptr %1, i64 6
  store i16 %50, ptr %51, align 2
  br i1 %2, label %52, label %56

52:                                               ; preds = %32
  %53 = load ptr, ptr %5, align 8
  %54 = getelementptr inbounds nuw i8, ptr %53, i64 56
  %55 = load ptr, ptr %54, align 8
  call void %55(ptr noundef nonnull %1) #14
  call void @pfree(ptr noundef nonnull %0) #14
  br label %56

56:                                               ; preds = %52, %32
  call void @llvm.lifetime.end.p0(i64 24, ptr nonnull %4) #14
  br label %tts_minimal_store_tuple.exit

tts_minimal_store_tuple.exit:                     ; preds = %30, %tts_minimal_clear.exit.i, %56
  ret void
}